target datalayout = "e-m:e-p270:32:32-p271:32:32-p272:64:64-i64:64-i128:128-f80:128-n8:16:32:64-S128"
target triple = "x86_64-pc-linux-gnu"

%struct.job_record = type { i32, ptr, ptr, ptr, ptr, i16, i32, i32, i32, ptr, i32, ptr, ptr, i16, ptr, double, i64, ptr, ptr, ptr, ptr, ptr, ptr, i32, ptr, i32, i64, i64, i32, i32, ptr, i16, i64, i64, i8, i32, ptr, ptr, ptr, ptr, ptr, ptr, ptr, ptr, i32, ptr, ptr, i32, ptr, i32, ptr, i32, ptr, i32, ptr, ptr, ptr, ptr, ptr, ptr, i32, i16, i64, ptr, ptr, ptr, ptr, %struct.acct_policy_limit_set_t, i16, ptr, ptr, ptr, ptr, ptr, i32, ptr, ptr, ptr, ptr, ptr, i32, i32, ptr, ptr, ptr, i16, ptr, ptr, i8, ptr, ptr, i64, i64, i8, i32, i32, i8, i32, ptr, i32, i64, i32, ptr, ptr, ptr, i8, i16, i64, i32, ptr, ptr, ptr, ptr, ptr, i16, i32, ptr, ptr, ptr, ptr, i32, ptr, i32, i16, i64, ptr, i32, i32, ptr, i64, ptr, ptr, i64, i32, i32, i64, i32, i32, ptr, ptr, ptr, ptr, ptr, ptr, ptr, ptr, ptr, ptr, ptr, ptr, i32, ptr, i16, i16, i16, i16, ptr, i32, i32, i8, i64 }
%struct.acct_policy_limit_set_t = type { i16, i16, ptr }
%struct.job_details_t = type { i32, ptr, i64, ptr, i32, ptr, i64, ptr, i16, i16, ptr, i16, i32, i32, i32, i16, ptr, i16, ptr, ptr, ptr, i16, ptr, ptr, ptr, ptr, i32, ptr, ptr, ptr, ptr, ptr, i32, i32, i32, ptr, ptr, i16, i32, i32, i32, i32, i32, i32, i16, i16, i32, i8, i8, i32, i32, i64, i64, i16, i32, ptr, ptr, i8, ptr, i32, ptr, i64, ptr, ptr, i16, i16, i16, i8, ptr, ptr, ptr, ptr, ptr, ptr, i64, i32, i32, i8, ptr, i16, ptr, ptr, i16 }

; Function Attrs: nounwind uwtable
define dso_local void @build_active_feature_bitmap(ptr noundef %0, ptr noundef %1, ptr noundef %2) #0 {
  %4 = alloca ptr, align 8
  %5 = alloca ptr, align 8
  %6 = alloca ptr, align 8
  %7 = alloca ptr, align 8
  %8 = alloca ptr, align 8
  %9 = alloca i8, align 1
  %10 = alloca i32, align 4
  store ptr %0, ptr %4, align 8
  store ptr %1, ptr %5, align 8
  store ptr %2, ptr %6, align 8
  call void @llvm.lifetime.start.p0(i64 8, ptr %7) #8
  %11 = load ptr, ptr %4, align 8
  %12 = getelementptr inbounds nuw %struct.job_record, ptr %11, i32 0, i32 30
  %13 = load ptr, ptr %12, align 8
  store ptr %13, ptr %7, align 8
  call void @llvm.lifetime.start.p0(i64 8, ptr %8) #8
  store ptr null, ptr %8, align 8
  call void @llvm.lifetime.start.p0(i64 1, ptr %9) #8
  %14 = load ptr, ptr %6, align 8
  store ptr null, ptr %14, align 8
  %15 = load ptr, ptr %7, align 8
  %16 = getelementptr inbounds nuw %struct.job_details_t, ptr %15, i32 0, i32 28
  %17 = load ptr, ptr %16, align 8
  %18 = icmp ne ptr %17, null
  br i1 %18, label %19, label %22

19:                                               ; preds = %3
  %20 = call i32 @node_features_g_count()
  %21 = icmp eq i32 %20, 0
  br i1 %21, label %22, label %23

22:                                               ; preds = %19, %3
  store i32 1, ptr %10, align 4
  br label %59

23:                                               ; preds = %19
  %24 = load ptr, ptr %4, align 8
  %25 = getelementptr inbounds nuw %struct.job_record, ptr %24, i32 0, i32 150
  %26 = load i32, ptr %25, align 8
  %27 = call zeroext i1 @node_features_g_user_update(i32 noundef %26)
  %28 = zext i1 %27 to i8
  store i8 %28, ptr %9, align 1
  %29 = load ptr, ptr %7, align 8
  %30 = getelementptr inbounds nuw %struct.job_details_t, ptr %29, i32 0, i32 28
  %31 = load ptr, ptr %30, align 8
  %32 = load i8, ptr %9, align 1, !range !12, !noundef !13
  %33 = trunc i8 %32 to i1
  call void @find_feature_nodes(ptr noundef %31, i1 noundef zeroext %33)
  %34 = load ptr, ptr %7, align 8
  %35 = getelementptr inbounds nuw %struct.job_details_t, ptr %34, i32 0, i32 28
  %36 = load ptr, ptr %35, align 8
  %37 = call i32 @_match_feature(ptr noundef %36, ptr noundef %8)
  %38 = icmp eq i32 %37, 0
  br i1 %38, label %39, label %40

39:                                               ; preds = %23
  store i32 1, ptr %10, align 4
  br label %59

40:                                               ; preds = %23
  %41 = load ptr, ptr %8, align 8
  call void @bit_not(ptr noundef %41)
  %42 = load ptr, ptr %5, align 8
  %43 = load ptr, ptr %8, align 8
  %44 = call i32 @bit_super_set(ptr noundef %42, ptr noundef %43)
  %45 = icmp ne i32 %44, 0
  br i1 %45, label %46, label %54

46:                                               ; preds = %40
  br label %47

47:                                               ; preds = %46
  %48 = load ptr, ptr %8, align 8
  %49 = icmp ne ptr %48, null
  br i1 %49, label %50, label %51

50:                                               ; preds = %47
  call void @slurm_bit_free(ptr noundef %8)
  br label %51

51:                                               ; preds = %50, %47
  store ptr null, ptr %8, align 8
  br label %52

52:                                               ; preds = %51
  br label %53

53:                                               ; preds = %52
  store i32 1, ptr %10, align 4
  br label %59

54:                                               ; preds = %40
  %55 = load ptr, ptr %8, align 8
  %56 = load ptr, ptr %5, align 8
  call void @bit_and(ptr noundef %55, ptr noundef %56)
  %57 = load ptr, ptr %8, align 8
  %58 = load ptr, ptr %6, align 8
  store ptr %57, ptr %58, align 8
  store i32 0, ptr %10, align 4
  br label %59

59:                                               ; preds = %54, %53, %39, %22
  call void @llvm.lifetime.end.p0(i64 1, ptr %9) #8
  call void @llvm.lifetime.end.p0(i64 8, ptr %8) #8
  call void @llvm.lifetime.end.p0(i64 8, ptr %7) #8
  %60 = load i32, ptr %10, align 4
  switch i32 %60, label %62 [
    i32 0, label %61
    i32 1, label %61
  ]

61:                                               ; preds = %59, %59
  ret void

62:                                               ; preds = %59
  unreachable
}