; Function Attrs: nounwind uwtable
define dso_local void @build_active_feature_bitmap(ptr noundef readonly captures(none) %0, ptr noundef %1, ptr noundef writeonly captures(none) initializes((0, 8)) %2) local_unnamed_addr #0 {
  %4 = alloca ptr, align 8
  %5 = getelementptr inbounds nuw i8, ptr %0, i64 216
  %6 = load ptr, ptr %5, align 8
  call void @llvm.lifetime.start.p0(i64 8, ptr nonnull %4) #14
  store ptr null, ptr %4, align 8
  store ptr null, ptr %2, align 8
  %7 = getelementptr inbounds nuw i8, ptr %6, i64 200
  %8 = load ptr, ptr %7, align 8
  %.not = icmp eq ptr %8, null
  br i1 %.not, label %26, label %9

9:                                                ; preds = %3
  %10 = tail call i32 @node_features_g_count() #14
  %11 = icmp eq i32 %10, 0
  br i1 %11, label %26, label %12

12:                                               ; preds = %9
  %13 = getelementptr inbounds nuw i8, ptr %0, i64 1096
  %14 = load i32, ptr %13, align 8
  %15 = tail call zeroext i1 @node_features_g_user_update(i32 noundef %14) #14
  %16 = load ptr, ptr %7, align 8
  tail call void @find_feature_nodes(ptr noundef %16, i1 noundef zeroext %15)
  %17 = load ptr, ptr %7, align 8
  %18 = call fastcc i32 @_match_feature(ptr noundef %17, ptr noundef %4)
  %19 = icmp eq i32 %18, 0
  br i1 %19, label %26, label %20

20:                                               ; preds = %12
  %21 = load ptr, ptr %4, align 8
  tail call void @bit_not(ptr noundef %21) #14
  %22 = tail call i32 @bit_super_set(ptr noundef %1, ptr noundef %21) #14
  %.not9 = icmp eq i32 %22, 0
  br i1 %.not9, label %25, label %23

23:                                               ; preds = %20
  %.not10 = icmp eq ptr %21, null
  br i1 %.not10, label %26, label %24

24:                                               ; preds = %23
  call void @slurm_bit_free(ptr noundef nonnull %4) #14
  br label %26

25:                                               ; preds = %20
  tail call void @bit_and(ptr noundef %21, ptr noundef %1) #14
  store ptr %21, ptr %2, align 8
  br label %26

26:                                               ; preds = %23, %24, %12, %3, %9, %25
  call void @llvm.lifetime.end.p0(i64 8, ptr nonnull %4) #14
  ret void
}